; ModuleID = '32/1780.c'
source_filename = "32/1780.c"
target datalayout = "e-m:e-p270:32:32-p271:32:32-p272:64:64-i64:64-f80:128-n8:16:32:64-S128"
target triple = "x86_64-pc-linux-gnu"

@.str = private unnamed_addr constant [3 x i8] c"%d\00", align 1
@.str.1 = private unnamed_addr constant [5 x i8] c"%s%s\00", align 1
@.str.2 = private unnamed_addr constant [3 x i8] c"%c\00", align 1
@.str.3 = private unnamed_addr constant [2 x i8] c"\0A\00", align 1

; Function Attrs: noinline nounwind uwtable
define dso_local void @main() #0 {
  %1 = alloca i32, align 4
  %2 = alloca i32, align 4
  %3 = alloca i32, align 4
  %4 = alloca [100 x i8], align 16
  %5 = alloca [100 x i8], align 16
  %6 = call i32 (i8*, ...) @__isoc99_scanf(i8* getelementptr inbounds ([3 x i8], [3 x i8]* @.str, i64 0, i64 0), i32* %1)
  store i32 1, i32* %2, align 4
  br label %7

7:                                                ; preds = %133, %0
  %8 = load i32, i32* %2, align 4
  %9 = load i32, i32* %1, align 4
  %10 = icmp sle i32 %8, %9
  br i1 %10, label %11, label %136

11:                                               ; preds = %7
  %12 = getelementptr inbounds [100 x i8], [100 x i8]* %4, i64 0, i64 0
  %13 = getelementptr inbounds [100 x i8], [100 x i8]* %5, i64 0, i64 0
  %14 = call i32 (i8*, ...) @__isoc99_scanf(i8* getelementptr inbounds ([5 x i8], [5 x i8]* @.str.1, i64 0, i64 0), i8* %12, i8* %13)
  %15 = getelementptr inbounds [100 x i8], [100 x i8]* %4, i64 0, i64 0
  %16 = call i64 @strlen(i8* %15) #3
  %17 = sub i64 %16, 1
  %18 = trunc i64 %17 to i32
  store i32 %18, i32* %3, align 4
  br label %19

19:                                               ; preds = %99, %11
  %20 = load i32, i32* %3, align 4
  %21 = sext i32 %20 to i64
  %22 = getelementptr inbounds [100 x i8], [100 x i8]* %4, i64 0, i64 0
  %23 = call i64 @strlen(i8* %22) #3
  %24 = getelementptr inbounds [100 x i8], [100 x i8]* %5, i64 0, i64 0
  %25 = call i64 @strlen(i8* %24) #3
  %26 = sub i64 %23, %25
  %27 = icmp uge i64 %21, %26
  br i1 %27, label %28, label %102

28:                                               ; preds = %19
  %29 = load i32, i32* %3, align 4
  %30 = sext i32 %29 to i64
  %31 = getelementptr inbounds [100 x i8], [100 x i8]* %4, i64 0, i64 %30
  %32 = load i8, i8* %31, align 1
  %33 = sext i8 %32 to i32
  %34 = load i32, i32* %3, align 4
  %35 = sext i32 %34 to i64
  %36 = getelementptr inbounds [100 x i8], [100 x i8]* %4, i64 0, i64 0
  %37 = call i64 @strlen(i8* %36) #3
  %38 = sub i64 %35, %37
  %39 = getelementptr inbounds [100 x i8], [100 x i8]* %5, i64 0, i64 0
  %40 = call i64 @strlen(i8* %39) #3
  %41 = add i64 %38, %40
  %42 = getelementptr inbounds [100 x i8], [100 x i8]* %5, i64 0, i64 %41
  %43 = load i8, i8* %42, align 1
  %44 = sext i8 %43 to i32
  %45 = icmp sge i32 %33, %44
  br i1 %45, label %46, label %69

46:                                               ; preds = %28
  %47 = load i32, i32* %3, align 4
  %48 = sext i32 %47 to i64
  %49 = getelementptr inbounds [100 x i8], [100 x i8]* %4, i64 0, i64 %48
  %50 = load i8, i8* %49, align 1
  %51 = sext i8 %50 to i32
  %52 = load i32, i32* %3, align 4
  %53 = sext i32 %52 to i64
  %54 = getelementptr inbounds [100 x i8], [100 x i8]* %4, i64 0, i64 0
  %55 = call i64 @strlen(i8* %54) #3
  %56 = sub i64 %53, %55
  %57 = getelementptr inbounds [100 x i8], [100 x i8]* %5, i64 0, i64 0
  %58 = call i64 @strlen(i8* %57) #3
  %59 = add i64 %56, %58
  %60 = getelementptr inbounds [100 x i8], [100 x i8]* %5, i64 0, i64 %59
  %61 = load i8, i8* %60, align 1
  %62 = sext i8 %61 to i32
  %63 = sub nsw i32 %51, %62
  %64 = add nsw i32 %63, 48
  %65 = trunc i32 %64 to i8
  %66 = load i32, i32* %3, align 4
  %67 = sext i32 %66 to i64
  %68 = getelementptr inbounds [100 x i8], [100 x i8]* %4, i64 0, i64 %67
  store i8 %65, i8* %68, align 1
  br label %98

69:                                               ; preds = %28
  %70 = load i32, i32* %3, align 4
  %71 = sext i32 %70 to i64
  %72 = getelementptr inbounds [100 x i8], [100 x i8]* %4, i64 0, i64 %71
  %73 = load i8, i8* %72, align 1
  %74 = sext i8 %73 to i32
  %75 = load i32, i32* %3, align 4
  %76 = sext i32 %75 to i64
  %77 = getelementptr inbounds [100 x i8], [100 x i8]* %4, i64 0, i64 0
  %78 = call i64 @strlen(i8* %77) #3
  %79 = sub i64 %76, %78
  %80 = getelementptr inbounds [100 x i8], [100 x i8]* %5, i64 0, i64 0
  %81 = call i64 @strlen(i8* %80) #3
  %82 = add i64 %79, %81
  %83 = getelementptr inbounds [100 x i8], [100 x i8]* %5, i64 0, i64 %82
  %84 = load i8, i8* %83, align 1
  %85 = sext i8 %84 to i32
  %86 = sub nsw i32 %74, %85
  %87 = add nsw i32 %86, 58
  %88 = trunc i32 %87 to i8
  %89 = load i32, i32* %3, align 4
  %90 = sext i32 %89 to i64
  %91 = getelementptr inbounds [100 x i8], [100 x i8]* %4, i64 0, i64 %90
  store i8 %88, i8* %91, align 1
  %92 = load i32, i32* %3, align 4
  %93 = sub nsw i32 %92, 1
  %94 = sext i32 %93 to i64
  %95 = getelementptr inbounds [100 x i8], [100 x i8]* %4, i64 0, i64 %94
  %96 = load i8, i8* %95, align 1
  %97 = add i8 %96, -1
  store i8 %97, i8* %95, align 1
  br label %98

98:                                               ; preds = %69, %46
  br label %99

99:                                               ; preds = %98
  %100 = load i32, i32* %3, align 4
  %101 = add nsw i32 %100, -1
  store i32 %101, i32* %3, align 4
  br label %19

102:                                              ; preds = %19
  store i32 0, i32* %3, align 4
  br label %103

103:                                              ; preds = %110, %102
  %104 = load i32, i32* %3, align 4
  %105 = sext i32 %104 to i64
  %106 = getelementptr inbounds [100 x i8], [100 x i8]* %4, i64 0, i64 %105
  %107 = load i8, i8* %106, align 1
  %108 = sext i8 %107 to i32
  %109 = icmp eq i32 %108, 48
  br i1 %109, label %110, label %113

110:                                              ; preds = %103
  %111 = load i32, i32* %3, align 4
  %112 = add nsw i32 %111, 1
  store i32 %112, i32* %3, align 4
  br label %103

113:                                              ; preds = %103
  br label %114

114:                                              ; preds = %128, %113
  %115 = load i32, i32* %3, align 4
  %116 = sext i32 %115 to i64
  %117 = getelementptr inbounds [100 x i8], [100 x i8]* %4, i64 0, i64 0
  %118 = call i64 @strlen(i8* %117) #3
  %119 = sub i64 %118, 1
  %120 = icmp ule i64 %116, %119
  br i1 %120, label %121, label %131

121:                                              ; preds = %114
  %122 = load i32, i32* %3, align 4
  %123 = sext i32 %122 to i64
  %124 = getelementptr inbounds [100 x i8], [100 x i8]* %4, i64 0, i64 %123
  %125 = load i8, i8* %124, align 1
  %126 = sext i8 %125 to i32
  %127 = call i32 (i8*, ...) @printf(i8* getelementptr inbounds ([3 x i8], [3 x i8]* @.str.2, i64 0, i64 0), i32 %126)
  br label %128

128:                                              ; preds = %121
  %129 = load i32, i32* %3, align 4
  %130 = add nsw i32 %129, 1
  store i32 %130, i32* %3, align 4
  br label %114

131:                                              ; preds = %114
  %132 = call i32 (i8*, ...) @printf(i8* getelementptr inbounds ([2 x i8], [2 x i8]* @.str.3, i64 0, i64 0))
  br label %133

133:                                              ; preds = %131
  %134 = load i32, i32* %2, align 4
  %135 = add nsw i32 %134, 1
  store i32 %135, i32* %2, align 4
  br label %7

136:                                              ; preds = %7
  ret void
}

declare dso_local i32 @__isoc99_scanf(i8*, ...) #1

; Function Attrs: nounwind readonly
declare dso_local i64 @strlen(i8*) #2

declare dso_local i32 @printf(i8*, ...) #1


!llvm.module.flags = !{!0}
!llvm.ident = !{!1}

!0 = !{i32 1, !"wchar_size", i32 4}
!1 = !{!"clang version 10.0.0-4ubuntu1 "}
